target datalayout = "e-m:e-p270:32:32-p271:32:32-p272:64:64-i64:64-i128:128-f80:128-n8:16:32:64-S128"
target triple = "x86_64-unknown-linux-gnu"

%"class.icu_75::UnicodeString" = type { %"class.icu_75::Replaceable", %"union.icu_75::UnicodeString::StackBufferOrFields" }
%"class.icu_75::Replaceable" = type { %"class.icu_75::UObject" }
%"class.icu_75::UObject" = type { ptr }
%"union.icu_75::UnicodeString::StackBufferOrFields" = type { %struct.anon.0, [32 x i8] }
%struct.anon.0 = type { i16, i32, i32, ptr }
%"struct.icu_75::CollationData" = type <{ ptr, ptr, ptr, ptr, ptr, ptr, ptr, i32, i32, i32, i32, ptr, ptr, ptr, i32, i32, ptr, ptr, i32, [4 x i8], ptr, i32, [4 x i8] }>
%"class.icu_75::ContractionsAndExpansions" = type <{ ptr, ptr, ptr, ptr, i8, i8, [6 x i8], %"class.icu_75::UnicodeSet", %"class.icu_75::UnicodeSet", %"class.icu_75::UnicodeString", ptr, [31 x i64], i32, [4 x i8] }>
%"class.icu_75::UnicodeSet" = type <{ %"class.icu_75::UnicodeFilter", ptr, i32, i32, i8, [7 x i8], ptr, ptr, i32, [4 x i8], ptr, i32, [4 x i8], ptr, ptr, [25 x i32], [4 x i8] }>
%"class.icu_75::UnicodeFilter" = type { %"class.icu_75::UnicodeFunctor", %"class.icu_75::UnicodeMatcher" }
%"class.icu_75::UnicodeFunctor" = type { %"class.icu_75::UObject" }
%"class.icu_75::UnicodeMatcher" = type { ptr }

; Function Attrs: mustprogress nounwind uwtable
define internal noundef signext i8 @_ZL9U_FAILURE10UErrorCode(i32 noundef %code) #1 {
entry:
  %code.addr = alloca i32, align 4
  store i32 %code, ptr %code.addr, align 4
  %0 = load i32, ptr %code.addr, align 4
  %cmp = icmp sgt i32 %0, 0
  %conv = zext i1 %cmp to i8
  ret i8 %conv
}

; Function Attrs: mustprogress uwtable
define void @_ZN6icu_7525ContractionsAndExpansions7forDataEPKNS_13CollationDataER10UErrorCode(ptr noundef nonnull align 8 dereferenceable(764) %this, ptr noundef %d, ptr noundef nonnull align 4 dereferenceable(4) %ec) #0 align 2 {
entry:
  %this.addr = alloca ptr, align 8
  %d.addr = alloca ptr, align 8
  %ec.addr = alloca ptr, align 8
  store ptr %this, ptr %this.addr, align 8
  store ptr %d, ptr %d.addr, align 8
  store ptr %ec, ptr %ec.addr, align 8
  %this1 = load ptr, ptr %this.addr, align 8
  %0 = load ptr, ptr %ec.addr, align 8
  %1 = load i32, ptr %0, align 4
  %call = call noundef signext i8 @_ZL9U_FAILURE10UErrorCode(i32 noundef %1)
  %tobool = icmp ne i8 %call, 0
  br i1 %tobool, label %if.then, label %if.end

if.then:                                          ; preds = %entry
  br label %return

if.end:                                           ; preds = %entry
  %2 = load ptr, ptr %ec.addr, align 8
  %3 = load i32, ptr %2, align 4
  %errorCode = getelementptr inbounds %"class.icu_75::ContractionsAndExpansions", ptr %this1, i32 0, i32 12
  store i32 %3, ptr %errorCode, align 8
  %4 = load ptr, ptr %d.addr, align 8
  %base = getelementptr inbounds %"struct.icu_75::CollationData", ptr %4, i32 0, i32 4
  %5 = load ptr, ptr %base, align 8
  %cmp = icmp ne ptr %5, null
  br i1 %cmp, label %if.then2, label %if.end3

if.then2:                                         ; preds = %if.end
  %checkTailored = getelementptr inbounds %"class.icu_75::ContractionsAndExpansions", ptr %this1, i32 0, i32 5
  store i8 -1, ptr %checkTailored, align 1
  br label %if.end3

if.end3:                                          ; preds = %if.then2, %if.end
  %6 = load ptr, ptr %d.addr, align 8
  %data = getelementptr inbounds %"class.icu_75::ContractionsAndExpansions", ptr %this1, i32 0, i32 0
  store ptr %6, ptr %data, align 8
  %data4 = getelementptr inbounds %"class.icu_75::ContractionsAndExpansions", ptr %this1, i32 0, i32 0
  %7 = load ptr, ptr %data4, align 8
  %trie = getelementptr inbounds %"struct.icu_75::CollationData", ptr %7, i32 0, i32 0
  %8 = load ptr, ptr %trie, align 8
  call void @utrie2_enum_75(ptr noundef %8, ptr noundef null, ptr noundef @_ZN6icu_75L12enumCnERangeEPKviij, ptr noundef %this1)
  %9 = load ptr, ptr %d.addr, align 8
  %base5 = getelementptr inbounds %"struct.icu_75::CollationData", ptr %9, i32 0, i32 4
  %10 = load ptr, ptr %base5, align 8
  %cmp6 = icmp eq ptr %10, null
  br i1 %cmp6, label %if.then10, label %lor.lhs.false

lor.lhs.false:                                    ; preds = %if.end3
  %errorCode7 = getelementptr inbounds %"class.icu_75::ContractionsAndExpansions", ptr %this1, i32 0, i32 12
  %11 = load i32, ptr %errorCode7, align 8
  %call8 = call noundef signext i8 @_ZL9U_FAILURE10UErrorCode(i32 noundef %11)
  %tobool9 = icmp ne i8 %call8, 0
  br i1 %tobool9, label %if.then10, label %if.end12

if.then10:                                        ; preds = %lor.lhs.false, %if.end3
  %errorCode11 = getelementptr inbounds %"class.icu_75::ContractionsAndExpansions", ptr %this1, i32 0, i32 12
  %12 = load i32, ptr %errorCode11, align 8
  %13 = load ptr, ptr %ec.addr, align 8
  store i32 %12, ptr %13, align 4
  br label %return

if.end12:                                         ; preds = %lor.lhs.false
  %tailored = getelementptr inbounds %"class.icu_75::ContractionsAndExpansions", ptr %this1, i32 0, i32 7
  %call13 = call noundef ptr @_ZN6icu_7510UnicodeSet6freezeEv(ptr noundef nonnull align 8 dereferenceable(200) %tailored)
  %checkTailored14 = getelementptr inbounds %"class.icu_75::ContractionsAndExpansions", ptr %this1, i32 0, i32 5
  store i8 1, ptr %checkTailored14, align 1
  %14 = load ptr, ptr %d.addr, align 8
  %base15 = getelementptr inbounds %"struct.icu_75::CollationData", ptr %14, i32 0, i32 4
  %15 = load ptr, ptr %base15, align 8
  %data16 = getelementptr inbounds %"class.icu_75::ContractionsAndExpansions", ptr %this1, i32 0, i32 0
  store ptr %15, ptr %data16, align 8
  %data17 = getelementptr inbounds %"class.icu_75::ContractionsAndExpansions", ptr %this1, i32 0, i32 0
  %16 = load ptr, ptr %data17, align 8
  %trie18 = getelementptr inbounds %"struct.icu_75::CollationData", ptr %16, i32 0, i32 0
  %17 = load ptr, ptr %trie18, align 8
  call void @utrie2_enum_75(ptr noundef %17, ptr noundef null, ptr noundef @_ZN6icu_75L12enumCnERangeEPKviij, ptr noundef %this1)
  %errorCode19 = getelementptr inbounds %"class.icu_75::ContractionsAndExpansions", ptr %this1, i32 0, i32 12
  %18 = load i32, ptr %errorCode19, align 8
  %19 = load ptr, ptr %ec.addr, align 8
  store i32 %18, ptr %19, align 4
  br label %return

return:                                           ; preds = %if.end12, %if.then10, %if.then
  ret void
}