; Function Attrs: mustprogress uwtable
define void @_ZN6icu_7525ContractionsAndExpansions7forDataEPKNS_13CollationDataER10UErrorCode(ptr noundef nonnull align 8 dereferenceable(764) %this, ptr noundef %d, ptr nocapture noundef nonnull align 4 dereferenceable(4) %ec) local_unnamed_addr #0 align 2 {
entry:
  %0 = load i32, ptr %ec, align 4
  %cmp.i = icmp slt i32 %0, 1
  br i1 %cmp.i, label %if.end, label %return

if.end:                                           ; preds = %entry
  %errorCode = getelementptr inbounds i8, ptr %this, i64 760
  store i32 %0, ptr %errorCode, align 8
  %base = getelementptr inbounds i8, ptr %d, i64 32
  %1 = load ptr, ptr %base, align 8
  %cmp.not = icmp eq ptr %1, null
  br i1 %cmp.not, label %if.end3, label %if.then2

if.then2:                                         ; preds = %if.end
  %checkTailored = getelementptr inbounds i8, ptr %this, i64 33
  store i8 -1, ptr %checkTailored, align 1
  br label %if.end3

if.end3:                                          ; preds = %if.then2, %if.end
  store ptr %d, ptr %this, align 8
  %2 = load ptr, ptr %d, align 8
  tail call void @utrie2_enum_75(ptr noundef %2, ptr noundef null, ptr noundef nonnull @_ZN6icu_75L12enumCnERangeEPKviij, ptr noundef nonnull %this)
  %3 = load ptr, ptr %base, align 8
  %cmp6 = icmp ne ptr %3, null
  %4 = load i32, ptr %errorCode, align 8
  %cmp.i7 = icmp slt i32 %4, 1
  %or.cond = select i1 %cmp6, i1 %cmp.i7, i1 false
  br i1 %or.cond, label %if.end12, label %return.sink.split

if.end12:                                         ; preds = %if.end3
  %tailored = getelementptr inbounds i8, ptr %this, i64 40
  %call13 = tail call noundef ptr @_ZN6icu_7510UnicodeSet6freezeEv(ptr noundef nonnull align 8 dereferenceable(200) %tailored)
  %checkTailored14 = getelementptr inbounds i8, ptr %this, i64 33
  store i8 1, ptr %checkTailored14, align 1
  %5 = load ptr, ptr %base, align 8
  store ptr %5, ptr %this, align 8
  %6 = load ptr, ptr %5, align 8
  tail call void @utrie2_enum_75(ptr noundef %6, ptr noundef null, ptr noundef nonnull @_ZN6icu_75L12enumCnERangeEPKviij, ptr noundef nonnull %this)
  %7 = load i32, ptr %errorCode, align 8
  br label %return.sink.split

return.sink.split:                                ; preds = %if.end3, %if.end12
  %.sink = phi i32 [ %7, %if.end12 ], [ %4, %if.end3 ]
  store i32 %.sink, ptr %ec, align 4
  br label %return

return:                                           ; preds = %return.sink.split, %entry
  ret void
}